target datalayout = "e-m:e-p270:32:32-p271:32:32-p272:64:64-i64:64-i128:128-f80:128-n8:16:32:64-S128"
target triple = "x86_64-pc-linux-gnu"

%struct.H5D_chk_idx_info_t = type { ptr, ptr, ptr, ptr }
%struct.H5O_storage_chunk_t = type { i32, i64, ptr, %union.anon }
%union.anon = type { %struct.H5O_storage_chunk_btree_t }
%struct.H5O_storage_chunk_btree_t = type { i64, ptr }
%struct.H5O_storage_chunk_bt2_t = type { i64, ptr }
%struct.H5O_layout_chunk_t = type { i32, i8, i32, [33 x i32], i32, i32, i64, i64, [33 x i64], [33 x i64], [33 x i64], [33 x i64], %union.anon.0 }
%union.anon.0 = type { %struct.H5O_layout_chunk_earray_t }
%struct.H5O_layout_chunk_earray_t = type { %struct.anon.1, i32, [33 x i32], [33 x i64], [33 x i64] }
%struct.anon.1 = type { i8, i8, i8, i8, i8 }
%struct.H5D_bt2_ud_t = type { %struct.H5D_chunk_rec_t, i32 }
%struct.H5D_chunk_rec_t = type { [33 x i64], i32, i32, i64 }
%struct.H5D_chunk_common_ud_t = type { ptr, ptr, ptr }

@.str.2 = private unnamed_addr constant [103 x i8] c"generated/home/dtcxzyw/WorkSpace/Projects/compilers/llvm-opt-benchmark/bench/hdf5/hdf5/src/H5Dbtree2.c\00", align 1
@H5E_DATASET_g = external global i64, align 8
@H5E_CANTOPENOBJ_g = external global i64, align 8
@.str.28 = private unnamed_addr constant [21 x i8] c"can't open v2 B-tree\00", align 1
@.str.29 = private unnamed_addr constant [35 x i8] c"can't patch v2 B-tree file pointer\00", align 1
@__func__.H5D__bt2_idx_remove = private unnamed_addr constant [20 x i8] c"H5D__bt2_idx_remove\00", align 1
@H5E_CANTREMOVE_g = external global i64, align 8
@.str.35 = private unnamed_addr constant [32 x i8] c"can't remove object from B-tree\00", align 1

; Function Attrs: nounwind uwtable
define internal i32 @H5D__bt2_idx_remove(ptr noundef %0, ptr noundef %1) #0 {
  %3 = alloca ptr, align 8
  %4 = alloca ptr, align 8
  %5 = alloca ptr, align 8
  %6 = alloca %struct.H5D_bt2_ud_t, align 8
  %7 = alloca i32, align 4
  %8 = alloca i32, align 4
  %9 = alloca i8, align 1
  store ptr %0, ptr %3, align 8
  store ptr %1, ptr %4, align 8
  store i32 0, ptr %8, align 4
  store i8 0, ptr %9, align 1
  %10 = load ptr, ptr %3, align 8
  %11 = getelementptr inbounds %struct.H5D_chk_idx_info_t, ptr %10, i32 0, i32 3
  %12 = load ptr, ptr %11, align 8
  %13 = getelementptr inbounds %struct.H5O_storage_chunk_t, ptr %12, i32 0, i32 3
  %14 = getelementptr inbounds %struct.H5O_storage_chunk_bt2_t, ptr %13, i32 0, i32 1
  %15 = load ptr, ptr %14, align 8
  %16 = icmp ne ptr null, %15
  br i1 %16, label %37, label %17

17:                                               ; preds = %2
  %18 = load ptr, ptr %3, align 8
  %19 = call i32 @H5D__bt2_idx_open(ptr noundef %18)
  %20 = icmp slt i32 %19, 0
  br i1 %20, label %21, label %36

21:                                               ; preds = %17
  br label %22

22:                                               ; preds = %21
  br label %23

23:                                               ; preds = %22
  br label %24

24:                                               ; preds = %23
  %25 = load i64, ptr @H5E_DATASET_g, align 8
  %26 = load i64, ptr @H5E_CANTOPENOBJ_g, align 8
  %27 = call i32 (ptr, ptr, i32, i64, i64, ptr, ...) @H5E_printf_stack(ptr noundef @.str.2, ptr noundef @__func__.H5D__bt2_idx_remove, i32 noundef 1266, i64 noundef %25, i64 noundef %26, ptr noundef @.str.28)
  br label %28

28:                                               ; preds = %24
  store i8 1, ptr %9, align 1
  %29 = load i8, ptr %9, align 1
  %30 = trunc i8 %29 to i1
  %31 = zext i1 %30 to i8
  store i8 %31, ptr %9, align 1
  br label %32

32:                                               ; preds = %28
  br label %33

33:                                               ; preds = %32
  store i32 -1, ptr %8, align 4
  br label %134

34:                                               ; No predecessors!
  br label %35

35:                                               ; preds = %34
  br label %36

36:                                               ; preds = %35, %17
  br label %65

37:                                               ; preds = %2
  %38 = load ptr, ptr %3, align 8
  %39 = getelementptr inbounds %struct.H5D_chk_idx_info_t, ptr %38, i32 0, i32 3
  %40 = load ptr, ptr %39, align 8
  %41 = getelementptr inbounds %struct.H5O_storage_chunk_t, ptr %40, i32 0, i32 3
  %42 = getelementptr inbounds %struct.H5O_storage_chunk_bt2_t, ptr %41, i32 0, i32 1
  %43 = load ptr, ptr %42, align 8
  %44 = load ptr, ptr %3, align 8
  %45 = getelementptr inbounds %struct.H5D_chk_idx_info_t, ptr %44, i32 0, i32 0
  %46 = load ptr, ptr %45, align 8
  %47 = call i32 @H5B2_patch_file(ptr noundef %43, ptr noundef %46)
  %48 = icmp slt i32 %47, 0
  br i1 %48, label %49, label %64

49:                                               ; preds = %37
  br label %50

50:                                               ; preds = %49
  br label %51

51:                                               ; preds = %50
  br label %52

52:                                               ; preds = %51
  %53 = load i64, ptr @H5E_DATASET_g, align 8
  %54 = load i64, ptr @H5E_CANTOPENOBJ_g, align 8
  %55 = call i32 (ptr, ptr, i32, i64, i64, ptr, ...) @H5E_printf_stack(ptr noundef @.str.2, ptr noundef @__func__.H5D__bt2_idx_remove, i32 noundef 1270, i64 noundef %53, i64 noundef %54, ptr noundef @.str.29)
  br label %56

56:                                               ; preds = %52
  store i8 1, ptr %9, align 1
  %57 = load i8, ptr %9, align 1
  %58 = trunc i8 %57 to i1
  %59 = zext i1 %58 to i8
  store i8 %59, ptr %9, align 1
  br label %60

60:                                               ; preds = %56
  br label %61

61:                                               ; preds = %60
  store i32 -1, ptr %8, align 4
  br label %134

62:                                               ; No predecessors!
  br label %63

63:                                               ; preds = %62
  br label %64

64:                                               ; preds = %63, %37
  br label %65

65:                                               ; preds = %64, %36
  %66 = load ptr, ptr %3, align 8
  %67 = getelementptr inbounds %struct.H5D_chk_idx_info_t, ptr %66, i32 0, i32 3
  %68 = load ptr, ptr %67, align 8
  %69 = getelementptr inbounds %struct.H5O_storage_chunk_t, ptr %68, i32 0, i32 3
  %70 = getelementptr inbounds %struct.H5O_storage_chunk_bt2_t, ptr %69, i32 0, i32 1
  %71 = load ptr, ptr %70, align 8
  store ptr %71, ptr %5, align 8
  %72 = load ptr, ptr %3, align 8
  %73 = getelementptr inbounds %struct.H5D_chk_idx_info_t, ptr %72, i32 0, i32 2
  %74 = load ptr, ptr %73, align 8
  %75 = getelementptr inbounds %struct.H5O_layout_chunk_t, ptr %74, i32 0, i32 2
  %76 = load i32, ptr %75, align 8
  %77 = sub i32 %76, 1
  %78 = getelementptr inbounds %struct.H5D_bt2_ud_t, ptr %6, i32 0, i32 1
  store i32 %77, ptr %78, align 8
  store i32 0, ptr %7, align 4
  br label %79

79:                                               ; preds = %101, %65
  %80 = load i32, ptr %7, align 4
  %81 = load ptr, ptr %3, align 8
  %82 = getelementptr inbounds %struct.H5D_chk_idx_info_t, ptr %81, i32 0, i32 2
  %83 = load ptr, ptr %82, align 8
  %84 = getelementptr inbounds %struct.H5O_layout_chunk_t, ptr %83, i32 0, i32 2
  %85 = load i32, ptr %84, align 8
  %86 = sub i32 %85, 1
  %87 = icmp ult i32 %80, %86
  br i1 %87, label %88, label %104

88:                                               ; preds = %79
  %89 = load ptr, ptr %4, align 8
  %90 = getelementptr inbounds %struct.H5D_chunk_common_ud_t, ptr %89, i32 0, i32 2
  %91 = load ptr, ptr %90, align 8
  %92 = load i32, ptr %7, align 4
  %93 = zext i32 %92 to i64
  %94 = getelementptr inbounds i64, ptr %91, i64 %93
  %95 = load i64, ptr %94, align 8
  %96 = getelementptr inbounds %struct.H5D_bt2_ud_t, ptr %6, i32 0, i32 0
  %97 = getelementptr inbounds %struct.H5D_chunk_rec_t, ptr %96, i32 0, i32 0
  %98 = load i32, ptr %7, align 4
  %99 = zext i32 %98 to i64
  %100 = getelementptr inbounds [33 x i64], ptr %97, i64 0, i64 %99
  store i64 %95, ptr %100, align 8
  br label %101

101:                                              ; preds = %88
  %102 = load i32, ptr %7, align 4
  %103 = add i32 %102, 1
  store i32 %103, ptr %7, align 4
  br label %79

104:                                              ; preds = %79
  %105 = load ptr, ptr %5, align 8
  %106 = load ptr, ptr %3, align 8
  %107 = getelementptr inbounds %struct.H5D_chk_idx_info_t, ptr %106, i32 0, i32 0
  %108 = load ptr, ptr %107, align 8
  %109 = call i32 @H5F_get_intent(ptr noundef %108)
  %110 = and i32 %109, 32
  %111 = icmp ne i32 %110, 0
  %112 = select i1 %111, ptr null, ptr @H5D__bt2_remove_cb
  %113 = load ptr, ptr %3, align 8
  %114 = getelementptr inbounds %struct.H5D_chk_idx_info_t, ptr %113, i32 0, i32 0
  %115 = load ptr, ptr %114, align 8
  %116 = call i32 @H5B2_remove(ptr noundef %105, ptr noundef %6, ptr noundef %112, ptr noundef %115)
  %117 = icmp slt i32 %116, 0
  br i1 %117, label %118, label %133

118:                                              ; preds = %104
  br label %119

119:                                              ; preds = %118
  br label %120

120:                                              ; preds = %119
  br label %121

121:                                              ; preds = %120
  %122 = load i64, ptr @H5E_DATASET_g, align 8
  %123 = load i64, ptr @H5E_CANTREMOVE_g, align 8
  %124 = call i32 (ptr, ptr, i32, i64, i64, ptr, ...) @H5E_printf_stack(ptr noundef @.str.2, ptr noundef @__func__.H5D__bt2_idx_remove, i32 noundef 1287, i64 noundef %122, i64 noundef %123, ptr noundef @.str.35)
  br label %125

125:                                              ; preds = %121
  store i8 1, ptr %9, align 1
  %126 = load i8, ptr %9, align 1
  %127 = trunc i8 %126 to i1
  %128 = zext i1 %127 to i8
  store i8 %128, ptr %9, align 1
  br label %129

129:                                              ; preds = %125
  br label %130

130:                                              ; preds = %129
  store i32 -1, ptr %8, align 4
  br label %134

131:                                              ; No predecessors!
  br label %132

132:                                              ; preds = %131
  br label %133

133:                                              ; preds = %132, %104
  br label %134

134:                                              ; preds = %133, %130, %61, %33
  %135 = load i32, ptr %8, align 4
  ret i32 %135
}