; Function Attrs: nounwind uwtable
define internal range(i32 -1, 1) i32 @H5D__bt2_idx_remove(ptr nocapture noundef readonly %0, ptr nocapture noundef readonly %1) #1 {
  %3 = alloca %struct.H5D_bt2_ud_t, align 8
  %4 = getelementptr inbounds i8, ptr %0, i64 24
  %5 = load ptr, ptr %4, align 8
  %6 = getelementptr inbounds i8, ptr %5, i64 32
  %7 = load ptr, ptr %6, align 8
  %.not = icmp eq ptr %7, null
  br i1 %.not, label %8, label %15

8:                                                ; preds = %2
  %9 = tail call i32 @H5D__bt2_idx_open(ptr noundef nonnull %0)
  %10 = icmp slt i32 %9, 0
  br i1 %10, label %11, label %23

11:                                               ; preds = %8
  %12 = load i64, ptr @H5E_DATASET_g, align 8
  %13 = load i64, ptr @H5E_CANTOPENOBJ_g, align 8
  %14 = tail call i32 (ptr, ptr, i32, i64, i64, ptr, ...) @H5E_printf_stack(ptr noundef nonnull @.str.2, ptr noundef nonnull @__func__.H5D__bt2_idx_remove, i32 noundef 1266, i64 noundef %12, i64 noundef %13, ptr noundef nonnull @.str.28) #14
  br label %52

15:                                               ; preds = %2
  %16 = load ptr, ptr %0, align 8
  %17 = tail call i32 @H5B2_patch_file(ptr noundef nonnull %7, ptr noundef %16) #14
  %18 = icmp slt i32 %17, 0
  br i1 %18, label %19, label %23

19:                                               ; preds = %15
  %20 = load i64, ptr @H5E_DATASET_g, align 8
  %21 = load i64, ptr @H5E_CANTOPENOBJ_g, align 8
  %22 = tail call i32 (ptr, ptr, i32, i64, i64, ptr, ...) @H5E_printf_stack(ptr noundef nonnull @.str.2, ptr noundef nonnull @__func__.H5D__bt2_idx_remove, i32 noundef 1270, i64 noundef %20, i64 noundef %21, ptr noundef nonnull @.str.29) #14
  br label %52

23:                                               ; preds = %15, %8
  %24 = load ptr, ptr %4, align 8
  %25 = getelementptr inbounds i8, ptr %24, i64 32
  %26 = load ptr, ptr %25, align 8
  %27 = getelementptr inbounds i8, ptr %0, i64 16
  %28 = load ptr, ptr %27, align 8
  %29 = getelementptr inbounds i8, ptr %28, i64 8
  %30 = load i32, ptr %29, align 8
  %31 = add i32 %30, -1
  %32 = getelementptr inbounds i8, ptr %3, i64 280
  store i32 %31, ptr %32, align 8
  %.not22 = icmp eq i32 %30, 1
  br i1 %.not22, label %._crit_edge, label %.lr.ph

.lr.ph:                                           ; preds = %23
  %33 = getelementptr inbounds i8, ptr %1, i64 16
  %34 = load ptr, ptr %33, align 8
  %35 = zext i32 %31 to i64
  br label %36

36:                                               ; preds = %.lr.ph, %36
  %indvars.iv = phi i64 [ 0, %.lr.ph ], [ %indvars.iv.next, %36 ]
  %37 = getelementptr inbounds i64, ptr %34, i64 %indvars.iv
  %38 = load i64, ptr %37, align 8
  %39 = getelementptr inbounds [33 x i64], ptr %3, i64 0, i64 %indvars.iv
  store i64 %38, ptr %39, align 8
  %indvars.iv.next = add nuw nsw i64 %indvars.iv, 1
  %40 = icmp ult i64 %indvars.iv.next, %35
  br i1 %40, label %36, label %._crit_edge

._crit_edge:                                      ; preds = %36, %23
  %41 = load ptr, ptr %0, align 8
  %42 = tail call i32 @H5F_get_intent(ptr noundef %41) #14
  %43 = and i32 %42, 32
  %.not20 = icmp eq i32 %43, 0
  %44 = select i1 %.not20, ptr @H5D__bt2_remove_cb, ptr null
  %45 = load ptr, ptr %0, align 8
  %46 = call i32 @H5B2_remove(ptr noundef %26, ptr noundef nonnull %3, ptr noundef %44, ptr noundef %45) #14
  %47 = icmp slt i32 %46, 0
  br i1 %47, label %48, label %52

48:                                               ; preds = %._crit_edge
  %49 = load i64, ptr @H5E_DATASET_g, align 8
  %50 = load i64, ptr @H5E_CANTREMOVE_g, align 8
  %51 = call i32 (ptr, ptr, i32, i64, i64, ptr, ...) @H5E_printf_stack(ptr noundef nonnull @.str.2, ptr noundef nonnull @__func__.H5D__bt2_idx_remove, i32 noundef 1287, i64 noundef %49, i64 noundef %50, ptr noundef nonnull @.str.35) #14
  br label %52

52:                                               ; preds = %._crit_edge, %48, %19, %11
  %.0 = phi i32 [ -1, %19 ], [ -1, %48 ], [ 0, %._crit_edge ], [ -1, %11 ]
  ret i32 %.0
}